target datalayout = "e-m:e-p270:32:32-p271:32:32-p272:64:64-i64:64-i128:128-f80:128-n8:16:32:64-S128"
target triple = "x86_64-pc-linux-gnu"

%struct._GC_arrays = type { i64, i64, i64, ptr, i64, i64, i64, i64, i64, i64, i64, i64, i64, i64, ptr, ptr, ptr, ptr, ptr, ptr, ptr, ptr, i32, i32, i32, i64, i64, i64, i64, i64, ptr, ptr, ptr, i64, i64, i32, i64, i64, ptr, i64, %struct.dl_hashtbl_s, %struct.dl_hashtbl_s, %struct.fnlz_roots_s, i32, ptr, i64, i64, i32, i32, i64, i64, i64, ptr, [64 x ptr], [8 x i8], [64 x ptr], [129 x ptr], [129 x ptr], [129 x ptr], [129 x ptr], [2049 x i64], [129 x ptr], [4096 x i8], [4096 x i64], [4096 x i64], ptr, [2048 x %struct.roots], [512 x %struct.exclusion], [2048 x ptr] }
%struct.dl_hashtbl_s = type { ptr, i64, i32 }
%struct.fnlz_roots_s = type { ptr, ptr }
%struct.roots = type { ptr, ptr, ptr, i32 }
%struct.exclusion = type { ptr, ptr }
%struct.bi = type { [1024 x ptr], ptr, ptr, i64, ptr }

@GC_arrays = global %struct._GC_arrays zeroinitializer, align 8

; Function Attrs: nounwind uwtable
define i32 @GC_is_heap_ptr(ptr noundef %0) #0 {
  %2 = alloca ptr, align 8
  %3 = alloca ptr, align 8
  %4 = alloca i64, align 8
  %5 = alloca ptr, align 8
  store ptr %0, ptr %2, align 8
  br label %6

6:                                                ; preds = %1
  %7 = load ptr, ptr %2, align 8
  %8 = ptrtoint ptr %7 to i64
  %9 = lshr i64 %8, 22
  store i64 %9, ptr %4, align 8
  %10 = load i64, ptr %4, align 8
  %11 = and i64 %10, 2047
  %12 = getelementptr inbounds %struct._GC_arrays, ptr @GC_arrays, i32 0, i32 68
  %13 = getelementptr inbounds [2048 x ptr], ptr %12, i64 0, i64 %11
  %14 = load ptr, ptr %13, align 8
  store ptr %14, ptr %5, align 8
  br label %15

15:                                               ; preds = %28, %6
  %16 = load ptr, ptr %5, align 8
  %17 = getelementptr inbounds %struct.bi, ptr %16, i32 0, i32 3
  %18 = load i64, ptr %17, align 8
  %19 = load i64, ptr %4, align 8
  %20 = icmp ne i64 %18, %19
  br i1 %20, label %21, label %26

21:                                               ; preds = %15
  %22 = load ptr, ptr %5, align 8
  %23 = getelementptr inbounds %struct._GC_arrays, ptr @GC_arrays, i32 0, i32 30
  %24 = load ptr, ptr %23, align 8
  %25 = icmp ne ptr %22, %24
  br label %26

26:                                               ; preds = %21, %15
  %27 = phi i1 [ false, %15 ], [ %25, %21 ]
  br i1 %27, label %28, label %32

28:                                               ; preds = %26
  %29 = load ptr, ptr %5, align 8
  %30 = getelementptr inbounds %struct.bi, ptr %29, i32 0, i32 4
  %31 = load ptr, ptr %30, align 8
  store ptr %31, ptr %5, align 8
  br label %15, !llvm.loop !49

32:                                               ; preds = %26
  %33 = load ptr, ptr %5, align 8
  store ptr %33, ptr %3, align 8
  br label %34

34:                                               ; preds = %32
  %35 = load ptr, ptr %3, align 8
  %36 = getelementptr inbounds %struct.bi, ptr %35, i32 0, i32 0
  %37 = load ptr, ptr %2, align 8
  %38 = ptrtoint ptr %37 to i64
  %39 = lshr i64 %38, 12
  %40 = and i64 %39, 1023
  %41 = getelementptr inbounds [1024 x ptr], ptr %36, i64 0, i64 %40
  %42 = load ptr, ptr %41, align 8
  %43 = icmp ne ptr %42, null
  %44 = zext i1 %43 to i32
  ret i32 %44
}