; Function Attrs: nofree norecurse nosync nounwind memory(read, inaccessiblemem: none) uwtable
define range(i32 0, 2) i32 @GC_is_heap_ptr(ptr noundef %0) local_unnamed_addr #0 {
  %2 = ptrtoint ptr %0 to i64
  %3 = lshr i64 %2, 22
  %4 = and i64 %3, 2047
  %5 = getelementptr inbounds nuw [2048 x ptr], ptr getelementptr inbounds nuw (i8, ptr @GC_arrays, i64 166400), i64 0, i64 %4
  %6 = load ptr, ptr getelementptr inbounds nuw (i8, ptr @GC_arrays, i64 232), align 8
  br label %7

7:                                                ; preds = %7, %1
  %.0.in = phi ptr [ %5, %1 ], [ %13, %7 ]
  %.0 = load ptr, ptr %.0.in, align 8
  %8 = getelementptr inbounds nuw i8, ptr %.0, i64 8208
  %9 = load i64, ptr %8, align 8
  %10 = icmp ne i64 %9, %3
  %11 = icmp ne ptr %.0, %6
  %12 = select i1 %10, i1 %11, i1 false
  %13 = getelementptr inbounds nuw i8, ptr %.0, i64 8216
  br i1 %12, label %7, label %14, !llvm.loop !73

14:                                               ; preds = %7
  %15 = lshr i64 %2, 12
  %16 = and i64 %15, 1023
  %17 = getelementptr inbounds nuw [1024 x ptr], ptr %.0, i64 0, i64 %16
  %18 = load ptr, ptr %17, align 8
  %19 = icmp ne ptr %18, null
  %20 = zext i1 %19 to i32
  ret i32 %20
}